EXPORTS
    _Z5solvev @1
    _Z8allocatePcRNSt7__cxx1112basic_stringIcSt11char_traitsIcESaIcEEE @2
    _Z9solveNamePcii @3
    _ZN11HuffmanNodeC1EcmjPS_S0_ @4
    _ZN13HuffmanCoding10decompressEPcRSt14basic_ifstreamIcSt11char_traitsIcEE @5
    _ZN13HuffmanCoding10garnerDataERSt14basic_ifstreamIcSt11char_traitsIcEE @6
    _ZN13HuffmanCoding12read2ByteNumERtRSt14basic_ifstreamIcSt11char_traitsIcEE @7
    _ZN13HuffmanCoding12read4ByteNumERmRSt14basic_ifstreamIcSt11char_traitsIcEE @8
    _ZN13HuffmanCoding15createCodewordsEP11HuffmanNodemi @9
    _ZN13HuffmanCoding16inputFrequenciesERSt14basic_ifstreamIcSt11char_traitsIcEE @10
    _ZN13HuffmanCoding16treeToArrayListsEP11HuffmanNode @11
    _ZN13HuffmanCoding17createHuffmanTreeEv @12
    _ZN13HuffmanCoding17outputFrequenciesERSt14basic_ifstreamIcSt11char_traitsIcEE @13
    _ZN13HuffmanCoding5errorENSt7__cxx1112basic_stringIcSt11char_traitsIcESaIcEEE @14
    _ZN13HuffmanCoding6decodeERSt14basic_ifstreamIcSt11char_traitsIcEE @15
    _ZN13HuffmanCoding6encodeERSt14basic_ifstreamIcSt11char_traitsIcEE @16
    _ZN13HuffmanCoding6outputEm @17
    _ZN13HuffmanCoding8compressEPcRSt14basic_ifstreamIcSt11char_traitsIcEE @18
    _ZN13HuffmanCoding9checkBitsERm @19
    _ZN13HuffmanCodingC1Ev @20
    _ZN13HuffmanCodingD1Ev @21
    _ZN7DataRecC1Ev @22
    _ZN8ListNodeC1EPS_S0_ @23
    _ZN8ListNodeC1Ev @24
    _ZN9__gnu_cxx13new_allocatorI7DataRecE10deallocateEPS1_j @25
    _ZN9__gnu_cxx13new_allocatorI7DataRecE7destroyIS1_EEvPT_ @26
    _ZN9__gnu_cxx13new_allocatorI7DataRecE8allocateEjPKv @27
    _ZN9__gnu_cxx13new_allocatorI7DataRecE9constructIS1_JRKS1_EEEvPT_DpOT0_ @28
    _ZN9__gnu_cxx13new_allocatorI7DataRecEC2Ev @29
    _ZN9__gnu_cxx13new_allocatorI7DataRecED2Ev @30
    _ZN9__gnu_cxx13new_allocatorIiE10deallocateEPij @31
    _ZN9__gnu_cxx13new_allocatorIiE8allocateEjPKv @32
    _ZN9__gnu_cxx13new_allocatorIiEC2Ev @33
    _ZN9__gnu_cxx13new_allocatorIiED2Ev @34
    _ZN9__gnu_cxx17__normal_iteratorIP7DataRecSt6vectorIS1_SaIS1_EEEC1ERKS2_ @35
    _ZN9__gnu_cxx17__normal_iteratorIP7DataRecSt6vectorIS1_SaIS1_EEEmmEv @36
    _ZN9__gnu_cxx17__normal_iteratorIP7DataRecSt6vectorIS1_SaIS1_EEEppEv @37
    _ZN9__gnu_cxx5__ops15__iter_comp_valENS0_15_Iter_less_iterE @38
    _ZN9__gnu_cxx5__ops15__val_comp_iterENS0_15_Iter_less_iterE @39
    _ZN9__gnu_cxx5__ops16__iter_less_iterEv @40
    _ZN9__gnu_cxxeqIP7DataRecSt6vectorIS1_SaIS1_EEEEbRKNS_17__normal_iteratorIT_T0_EESB_ @41
    _ZN9__gnu_cxxltIP7DataRecSt6vectorIS1_SaIS1_EEEEbRKNS_17__normal_iteratorIT_T0_EESB_ @42
    _ZN9__gnu_cxxmiIP7DataRecSt6vectorIS1_SaIS1_EEEENS_17__normal_iteratorIT_T0_E15difference_typeERKS9_SC_ @43
    _ZN9__gnu_cxxneIP7DataRecSt6vectorIS1_SaIS1_EEEEbRKNS_17__normal_iteratorIT_T0_EESB_ @44
    _ZNK7DataRecltERS_ @45
    _ZNK9__gnu_cxx13new_allocatorI7DataRecE8max_sizeEv @46
    _ZNK9__gnu_cxx13new_allocatorIiE8max_sizeEv @47
    _ZNK9__gnu_cxx17__normal_iteratorIP7DataRecSt6vectorIS1_SaIS1_EEE4baseEv @48
    _ZNK9__gnu_cxx17__normal_iteratorIP7DataRecSt6vectorIS1_SaIS1_EEEdeEv @49
    _ZNK9__gnu_cxx17__normal_iteratorIP7DataRecSt6vectorIS1_SaIS1_EEEmiEi @50
    _ZNK9__gnu_cxx17__normal_iteratorIP7DataRecSt6vectorIS1_SaIS1_EEEplEi @51
    _ZNK9__gnu_cxx5__ops14_Iter_less_valclINS_17__normal_iteratorIP7DataRecSt6vectorIS4_SaIS4_EEEES4_EEbT_RT0_ @52
    _ZNK9__gnu_cxx5__ops14_Val_less_iterclI7DataRecNS_17__normal_iteratorIPS3_St6vectorIS3_SaIS3_EEEEEEbRT_T0_ @53
    _ZNK9__gnu_cxx5__ops15_Iter_less_iterclINS_17__normal_iteratorIP7DataRecSt6vectorIS4_SaIS4_EEEES9_EEbT_T0_ @54
    _ZNKSt12_Vector_baseI7DataRecSaIS0_EE19_M_get_Tp_allocatorEv @55
    _ZNKSt12_Vector_baseIiSaIiEE19_M_get_Tp_allocatorEv @56
    _ZNKSt13move_iteratorIP7DataRecE4baseEv @57
    _ZNKSt13move_iteratorIP7DataRecEdeEv @58
    _ZNKSt13move_iteratorIPiE4baseEv @59
    _ZNKSt4fposIiEcvxEv @60
    _ZNKSt6vectorI7DataRecSaIS0_EE12_M_check_lenEjPKc @61
    _ZNKSt6vectorI7DataRecSaIS0_EE4sizeEv @62
    _ZNKSt6vectorI7DataRecSaIS0_EE8capacityEv @63
    _ZNKSt6vectorI7DataRecSaIS0_EE8max_sizeEv @64
    _ZNKSt6vectorIiSaIiEE12_M_check_lenEjPKc @65
    _ZNKSt6vectorIiSaIiEE4sizeEv @66
    _ZNKSt6vectorIiSaIiEE8max_sizeEv @67
    _ZNSaI7DataRecEC2Ev @68
    _ZNSaI7DataRecED2Ev @69
    _ZNSaIiEC2Ev @70
    _ZNSaIiED2Ev @71
    _ZNSt10_Iter_baseIN9__gnu_cxx17__normal_iteratorIP7DataRecSt6vectorIS2_SaIS2_EEEELb0EE7_S_baseES7_ @72
    _ZNSt10_Iter_baseIN9__gnu_cxx17__normal_iteratorIP7DataRecSt6vectorIS2_SaIS2_EEEELb1EE7_S_baseES7_ @73
    _ZNSt10_Iter_baseIPiLb0EE7_S_baseES0_ @74
    _ZNSt10_Iter_baseISt13move_iteratorIPiELb1EE7_S_baseES2_ @75
    _ZNSt11__copy_moveILb1ELb1ESt26random_access_iterator_tagE8__copy_mIiEEPT_PKS3_S6_S4_ @76
    _ZNSt12_Destroy_auxILb1EE9__destroyIP7DataRecEEvT_S4_ @77
    _ZNSt12_Destroy_auxILb1EE9__destroyIPiEEvT_S3_ @78
    _ZNSt12_Vector_baseI7DataRecSaIS0_EE11_M_allocateEj @79
    _ZNSt12_Vector_baseI7DataRecSaIS0_EE12_Vector_implC1Ev @80
    _ZNSt12_Vector_baseI7DataRecSaIS0_EE12_Vector_implD1Ev @81
    _ZNSt12_Vector_baseI7DataRecSaIS0_EE13_M_deallocateEPS0_j @82
    _ZNSt12_Vector_baseI7DataRecSaIS0_EE19_M_get_Tp_allocatorEv @83
    _ZNSt12_Vector_baseI7DataRecSaIS0_EEC2Ev @84
    _ZNSt12_Vector_baseI7DataRecSaIS0_EED2Ev @85
    _ZNSt12_Vector_baseIiSaIiEE11_M_allocateEj @86
    _ZNSt12_Vector_baseIiSaIiEE12_Vector_implC1Ev @87
    _ZNSt12_Vector_baseIiSaIiEE12_Vector_implD1Ev @88
    _ZNSt12_Vector_baseIiSaIiEE13_M_deallocateEPij @89
    _ZNSt12_Vector_baseIiSaIiEE19_M_get_Tp_allocatorEv @90
    _ZNSt12_Vector_baseIiSaIiEEC2Ev @91
    _ZNSt12_Vector_baseIiSaIiEED2Ev @92
    _ZNSt13move_iteratorIP7DataRecEC1ES1_ @93
    _ZNSt13move_iteratorIP7DataRecEppEv @94
    _ZNSt13move_iteratorIPiEC1ES0_ @95
    _ZNSt16allocator_traitsISaI7DataRecEE10_S_destroyIS0_EENSt9enable_ifIXsrSt6__and_IJNS2_16__destroy_helperIT_E4typeEEE5valueEvE4typeERS1_PS7_ @96
    _ZNSt16allocator_traitsISaI7DataRecEE10deallocateERS1_PS0_j @97
    _ZNSt16allocator_traitsISaI7DataRecEE11_S_max_sizeIKS1_vEEjRT_i @98
    _ZNSt16allocator_traitsISaI7DataRecEE12_S_constructIS0_JRKS0_EEENSt9enable_ifIXsrSt6__and_IJNS2_18__construct_helperIT_JDpT0_EE4typeEEE5valueEvE4typeERS1_PS9_DpOSA_ @99
    _ZNSt16allocator_traitsISaI7DataRecEE7destroyIS0_EEvRS1_PT_ @100
    _ZNSt16allocator_traitsISaI7DataRecEE8allocateERS1_j @101
    _ZNSt16allocator_traitsISaI7DataRecEE8max_sizeERKS1_ @102
    _ZNSt16allocator_traitsISaI7DataRecEE9constructIS0_JRKS0_EEEDTcl12_S_constructfp_fp0_spcl7forwardIT0_Efp1_EEERS1_PT_DpOS6_ @103
    _ZNSt16allocator_traitsISaIiEE10deallocateERS0_Pij @104
    _ZNSt16allocator_traitsISaIiEE11_S_max_sizeIKS0_vEEjRT_i @105
    _ZNSt16allocator_traitsISaIiEE8allocateERS0_j @106
    _ZNSt16allocator_traitsISaIiEE8max_sizeERKS0_ @107
    _ZNSt20__copy_move_backwardILb1ELb0ESt26random_access_iterator_tagE13__copy_move_bIP7DataRecS4_EET0_T_S6_S5_ @108
    _ZNSt20__uninitialized_copyILb0EE13__uninit_copyISt13move_iteratorIP7DataRecES4_EET0_T_S7_S6_ @109
    _ZNSt20__uninitialized_copyILb1EE13__uninit_copyISt13move_iteratorIPiES3_EET0_T_S6_S5_ @110
    _ZNSt27__uninitialized_default_n_1ILb1EE18__uninit_default_nIPijEET_S3_T0_ @111
    _ZNSt6vectorI7DataRecSaIS0_EE15_M_erase_at_endEPS0_ @112
    _ZNSt6vectorI7DataRecSaIS0_EE19_M_emplace_back_auxIJRKS0_EEEvDpOT_ @113
    _ZNSt6vectorI7DataRecSaIS0_EE20_M_allocate_and_copyISt13move_iteratorIPS0_EEES5_jT_S7_ @114
    _ZNSt6vectorI7DataRecSaIS0_EE3endEv @115
    _ZNSt6vectorI7DataRecSaIS0_EE5beginEv @116
    _ZNSt6vectorI7DataRecSaIS0_EE5clearEv @117
    _ZNSt6vectorI7DataRecSaIS0_EE7reserveEj @118
    _ZNSt6vectorI7DataRecSaIS0_EE9push_backERKS0_ @119
    _ZNSt6vectorI7DataRecSaIS0_EEC1Ev @120
    _ZNSt6vectorI7DataRecSaIS0_EED1Ev @121
    _ZNSt6vectorI7DataRecSaIS0_EEixEj @122
    _ZNSt6vectorIiSaIiEE15_M_erase_at_endEPi @123
    _ZNSt6vectorIiSaIiEE17_M_default_appendEj @124
    _ZNSt6vectorIiSaIiEE6resizeEj @125
    _ZNSt6vectorIiSaIiEEC1Ev @126
    _ZNSt6vectorIiSaIiEED1Ev @127
    _ZSt10_ConstructI7DataRecJS0_EEvPT_DpOT0_ @128
    _ZSt10__fill_n_aIPijiEN9__gnu_cxx11__enable_ifIXsrSt11__is_scalarIT1_E7__valueET_E6__typeES6_T0_RKS4_ @129
    _ZSt10__pop_heapIN9__gnu_cxx17__normal_iteratorIP7DataRecSt6vectorIS2_SaIS2_EEEENS0_5__ops15_Iter_less_iterEEvT_SA_SA_T0_ @130
    _ZSt11__addressofI7DataRecEPT_RS1_ @131
    _ZSt11__make_heapIN9__gnu_cxx17__normal_iteratorIP7DataRecSt6vectorIS2_SaIS2_EEEENS0_5__ops15_Iter_less_iterEEvT_SA_T0_ @132
    _ZSt11__push_heapIN9__gnu_cxx17__normal_iteratorIP7DataRecSt6vectorIS2_SaIS2_EEEEiS2_NS0_5__ops14_Iter_less_valEEvT_T0_SB_T1_T2_ @133
    _ZSt11__sort_heapIN9__gnu_cxx17__normal_iteratorIP7DataRecSt6vectorIS2_SaIS2_EEEENS0_5__ops15_Iter_less_iterEEvT_SA_T0_ @134
    _ZSt12__miter_baseIN9__gnu_cxx17__normal_iteratorIP7DataRecSt6vectorIS2_SaIS2_EEEEENSt11_Miter_baseIT_E13iterator_typeES9_ @135
    _ZSt12__miter_baseISt13move_iteratorIPiEENSt11_Miter_baseIT_E13iterator_typeES4_ @136
    _ZSt12__niter_baseIN9__gnu_cxx17__normal_iteratorIP7DataRecSt6vectorIS2_SaIS2_EEEEENSt11_Niter_baseIT_E13iterator_typeES9_ @137
    _ZSt12__niter_baseIPiENSt11_Niter_baseIT_E13iterator_typeES2_ @138
    _ZSt13__adjust_heapIN9__gnu_cxx17__normal_iteratorIP7DataRecSt6vectorIS2_SaIS2_EEEEiS2_NS0_5__ops15_Iter_less_iterEEvT_T0_SB_T1_T2_ @139
    _ZSt13__copy_move_aILb1EPiS0_ET1_T0_S2_S1_ @140
    _ZSt13__heap_selectIN9__gnu_cxx17__normal_iteratorIP7DataRecSt6vectorIS2_SaIS2_EEEENS0_5__ops15_Iter_less_iterEEvT_SA_SA_T0_ @141
    _ZSt13move_backwardIN9__gnu_cxx17__normal_iteratorIP7DataRecSt6vectorIS2_SaIS2_EEEES7_ET0_T_S9_S8_ @142
    _ZSt14__copy_move_a2ILb1EPiS0_ET1_T0_S2_S1_ @143
    _ZSt14__partial_sortIN9__gnu_cxx17__normal_iteratorIP7DataRecSt6vectorIS2_SaIS2_EEEENS0_5__ops15_Iter_less_iterEEvT_SA_SA_T0_ @144
    _ZSt16__insertion_sortIN9__gnu_cxx17__normal_iteratorIP7DataRecSt6vectorIS2_SaIS2_EEEENS0_5__ops15_Iter_less_iterEEvT_SA_T0_ @145
    _ZSt16__introsort_loopIN9__gnu_cxx17__normal_iteratorIP7DataRecSt6vectorIS2_SaIS2_EEEEiNS0_5__ops15_Iter_less_iterEEvT_SA_T0_T1_ @146
    _ZSt18uninitialized_copyISt13move_iteratorIP7DataRecES2_ET0_T_S5_S4_ @147
    _ZSt18uninitialized_copyISt13move_iteratorIPiES1_ET0_T_S4_S3_ @148
    _ZSt21__unguarded_partitionIN9__gnu_cxx17__normal_iteratorIP7DataRecSt6vectorIS2_SaIS2_EEEENS0_5__ops15_Iter_less_iterEET_SA_SA_SA_T0_ @149
    _ZSt22__copy_move_backward_aILb1EP7DataRecS1_ET1_T0_S3_S2_ @150
    _ZSt22__final_insertion_sortIN9__gnu_cxx17__normal_iteratorIP7DataRecSt6vectorIS2_SaIS2_EEEENS0_5__ops15_Iter_less_iterEEvT_SA_T0_ @151
    _ZSt22__move_median_to_firstIN9__gnu_cxx17__normal_iteratorIP7DataRecSt6vectorIS2_SaIS2_EEEENS0_5__ops15_Iter_less_iterEEvT_SA_SA_SA_T0_ @152
    _ZSt22__uninitialized_copy_aISt13move_iteratorIP7DataRecES2_S1_ET0_T_S5_S4_RSaIT1_E @153
    _ZSt22__uninitialized_copy_aISt13move_iteratorIPiES1_iET0_T_S4_S3_RSaIT1_E @154
    _ZSt23__copy_move_backward_a2ILb1EN9__gnu_cxx17__normal_iteratorIP7DataRecSt6vectorIS2_SaIS2_EEEES7_ET1_T0_S9_S8_ @155
    _ZSt25__unguarded_linear_insertIN9__gnu_cxx17__normal_iteratorIP7DataRecSt6vectorIS2_SaIS2_EEEENS0_5__ops14_Val_less_iterEEvT_T0_ @156
    _ZSt25__uninitialized_default_nIPijET_S1_T0_ @157
    _ZSt26__unguarded_insertion_sortIN9__gnu_cxx17__normal_iteratorIP7DataRecSt6vectorIS2_SaIS2_EEEENS0_5__ops15_Iter_less_iterEEvT_SA_T0_ @158
    _ZSt27__unguarded_partition_pivotIN9__gnu_cxx17__normal_iteratorIP7DataRecSt6vectorIS2_SaIS2_EEEENS0_5__ops15_Iter_less_iterEET_SA_SA_T0_ @159
    _ZSt27__uninitialized_default_n_aIPijiET_S1_T0_RSaIT1_E @160
    _ZSt32__make_move_if_noexcept_iteratorIP7DataRecSt13move_iteratorIS1_EET0_T_ @161
    _ZSt32__make_move_if_noexcept_iteratorIPiSt13move_iteratorIS0_EET0_T_ @162
    _ZSt34__uninitialized_move_if_noexcept_aIP7DataRecS1_SaIS0_EET0_T_S4_S3_RT1_ @163
    _ZSt34__uninitialized_move_if_noexcept_aIPiS0_SaIiEET0_T_S3_S2_RT1_ @164
    _ZSt3maxIjERKT_S2_S2_ @165
    _ZSt4__lgi @166
    _ZSt4copyISt13move_iteratorIPiES1_ET0_T_S4_S3_ @167
    _ZSt4moveIR7DataRecEONSt16remove_referenceIT_E4typeEOS3_ @168
    _ZSt4sortIN9__gnu_cxx17__normal_iteratorIP7DataRecSt6vectorIS2_SaIS2_EEEEEvT_S8_ @169
    _ZSt4swapI7DataRecEvRT_S2_ @170
    _ZSt6__sortIN9__gnu_cxx17__normal_iteratorIP7DataRecSt6vectorIS2_SaIS2_EEEENS0_5__ops15_Iter_less_iterEEvT_SA_T0_ @171
    _ZSt6fill_nIPijiET_S1_T0_RKT1_ @172
    _ZSt7forwardI7DataRecEOT_RNSt16remove_referenceIS1_E4typeE @173
    _ZSt7forwardIRK7DataRecEOT_RNSt16remove_referenceIS3_E4typeE @174
    _ZSt8_DestroyIP7DataRecEvT_S2_ @175
    _ZSt8_DestroyIP7DataRecS0_EvT_S2_RSaIT0_E @176
    _ZSt8_DestroyIPiEvT_S1_ @177
    _ZSt8_DestroyIPiiEvT_S1_RSaIT0_E @178
    _ZSt9iter_swapIN9__gnu_cxx17__normal_iteratorIP7DataRecSt6vectorIS2_SaIS2_EEEES7_EvT_T0_ @179
    _ZSteqIP7DataRecEbRKSt13move_iteratorIT_ES6_ @180
    _ZSteqIcSt11char_traitsIcESaIcEEbRKNSt7__cxx1112basic_stringIT_T0_T1_EEPKS5_ @181
    _ZStneIP7DataRecEbRKSt13move_iteratorIT_ES6_ @182
    _ZStneIcSt11char_traitsIcESaIcEEbRKNSt7__cxx1112basic_stringIT_T0_T1_EEPKS5_ @183
    _ZStorSt13_Ios_OpenmodeS_ @184
    _ZnwjPv @185
    _get_output_format @186
